Certificate:
    Data:
        Version: 3 (0x2)
        Serial Number:
            c2:6b:b8:25:64:28:32:54:c5:d4:08:5a:e7:0a:e0:2a
        Signature Algorithm: sha256WithRSAEncryption
        Issuer: CN=Easy-RSA CA
        Validity
            Not Before: Jun 19 16:19:20 2024 GMT
            Not After : Jun  4 16:19:20 2027 GMT
        Subject: CN=client1
        Subject Public Key Info:
            Public Key Algorithm: rsaEncryption
                RSA Public-Key: (2048 bit)
                Modulus:
                    00:b5:b0:d6:b7:91:bc:5e:f8:8d:20:e2:8f:02:1f:
                    43:68:53:84:4f:a7:79:63:de:e4:d5:c5:b8:ac:e9:
                    54:c3:df:05:8b:1d:80:f9:db:7b:2e:a1:33:95:cd:
                    31:63:86:4d:c4:29:7d:b8:24:79:0c:a5:1f:d0:f8:
                    e7:a1:dd:10:97:98:a8:80:6c:e0:33:05:88:b3:73:
                    b9:c3:66:6b:23:25:af:9e:c2:dc:95:b5:ad:4b:24:
                    17:86:16:93:dc:de:75:56:cd:3c:d5:f5:0b:54:76:
                    ec:69:92:3b:dc:08:f0:0c:98:02:7e:77:99:a1:0f:
                    76:65:3d:a1:97:da:7e:b3:6f:5b:72:2d:64:4a:76:
                    d4:f8:b9:85:25:c3:29:6c:1d:c5:04:c4:76:eb:2e:
                    b6:22:e4:41:e5:89:f5:73:9a:3b:bf:93:98:95:15:
                    95:d3:72:0d:75:dc:58:07:9d:5f:65:a2:5c:7a:a7:
                    a1:9a:0a:c0:14:b3:6b:fc:59:ec:0c:e7:1f:92:04:
                    b1:4b:12:8a:69:79:b4:48:04:e1:b5:27:5f:82:c3:
                    20:50:58:10:79:f1:0e:de:20:12:ae:b7:11:58:a3:
                    2f:ec:2b:55:04:21:6c:25:78:62:2b:b4:a3:c7:4e:
                    e7:80:94:fd:7b:41:42:d2:43:85:cc:2e:bd:51:e7:
                    95:e5
                Exponent: 65537 (0x10001)
        X509v3 extensions:
            X509v3 Basic Constraints: 
                CA:FALSE
            X509v3 Subject Key Identifier: 
                30:7C:AE:91:F3:76:35:67:21:22:5B:84:EC:45:51:DD:59:EE:13:FA
            X509v3 Authority Key Identifier: 
                keyid:71:7A:D6:3A:CE:AE:80:EC:86:45:A9:0B:AC:9C:32:53:87:4D:8C:A9
                DirName:/CN=Easy-RSA CA
                serial:75:46:84:BE:50:AF:8E:4A:00:34:D8:49:80:34:AD:52:8A:2F:3B:82

            X509v3 Extended Key Usage: 
                TLS Web Client Authentication
            X509v3 Key Usage: 
                Digital Signature
    Signature Algorithm: sha256WithRSAEncryption
         49:0e:82:4d:69:84:dd:b9:f3:4b:cc:d9:d0:c4:3f:dc:76:57:
         cf:48:58:20:68:79:80:a2:79:5a:2e:38:30:39:9d:8f:5f:6b:
         c1:74:e8:d0:62:d1:36:5b:1a:4f:4e:6e:c1:c1:03:03:2a:84:
         47:97:06:e8:6c:37:19:bc:0e:6b:d4:1d:b3:5f:d4:a1:4d:8c:
         bf:97:51:51:be:99:29:46:83:3e:d4:d0:9e:e4:a7:f6:68:c6:
         42:cf:2e:6e:9f:f6:ef:0c:5f:1d:83:b3:b9:b3:b1:68:3d:76:
         11:3b:dd:4d:e2:48:0e:66:6e:64:d4:90:54:4f:3b:5f:0f:47:
         fc:33:27:21:cf:2c:81:20:96:45:b5:af:bd:03:81:2b:a1:fc:
         5b:0a:9b:77:71:a1:4f:d4:7f:94:e8:b1:e7:85:b4:cf:64:d2:
         18:ed:7f:2a:58:d8:c6:e4:f5:82:80:d7:85:89:5b:83:59:5b:
         8a:b0:d8:50:b4:47:fa:7f:5e:30:fe:38:ea:bd:28:a3:d8:0e:
         4a:53:a7:d8:91:f8:a5:1d:fb:34:2c:25:75:1a:a9:a8:1f:88:
         71:97:d9:eb:11:fc:e3:2a:3e:77:b0:88:ba:56:02:57:36:cd:
         26:a0:a0:75:7b:5e:64:4c:86:e1:e7:5d:05:7d:6f:5a:51:bc:
         e0:10:13:35
-----BEGIN CERTIFICATE-----
MIIDVjCCAj6gAwIBAgIRAMJruCVkKDJUxdQIWucK4CowDQYJKoZIhvcNAQELBQAw
FjEUMBIGA1UEAwwLRWFzeS1SU0EgQ0EwHhcNMjQwNjE5MTYxOTIwWhcNMjcwNjA0
MTYxOTIwWjASMRAwDgYDVQQDDAdjbGllbnQxMIIBIjANBgkqhkiG9w0BAQEFAAOC
AQ8AMIIBCgKCAQEAtbDWt5G8XviNIOKPAh9DaFOET6d5Y97k1cW4rOlUw98Fix2A
+dt7LqEzlc0xY4ZNxCl9uCR5DKUf0Pjnod0Ql5iogGzgMwWIs3O5w2ZrIyWvnsLc
lbWtSyQXhhaT3N51Vs081fULVHbsaZI73AjwDJgCfneZoQ92ZT2hl9p+s29bci1k
SnbU+LmFJcMpbB3FBMR26y62IuRB5Yn1c5o7v5OYlRWV03INddxYB51fZaJceqeh
mgrAFLNr/FnsDOcfkgSxSxKKaXm0SAThtSdfgsMgUFgQefEO3iASrrcRWKMv7CtV
BCFsJXhiK7Sjx07ngJT9e0FC0kOFzC69UeeV5QIDAQABo4GiMIGfMAkGA1UdEwQC
MAAwHQYDVR0OBBYEFDB8rpHzdjVnISJbhOxFUd1Z7hP6MFEGA1UdIwRKMEiAFHF6
1jrOroDshkWpC6ycMlOHTYypoRqkGDAWMRQwEgYDVQQDDAtFYXN5LVJTQSBDQYIU
dUaEvlCvjkoANNhJgDStUoovO4IwEwYDVR0lBAwwCgYIKwYBBQUHAwIwCwYDVR0P
BAQDAgeAMA0GCSqGSIb3DQEBCwUAA4IBAQBJDoJNaYTdufNLzNnQxD/cdlfPSFgg
aHmAonlaLjgwOZ2PX2vBdOjQYtE2WxpPTm7BwQMDKoRHlwbobDcZvA5r1B2zX9Sh
TYy/l1FRvpkpRoM+1NCe5Kf2aMZCzy5un/bvDF8dg7O5s7FoPXYRO91N4kgOZm5k
1JBUTztfD0f8MychzyyBIJZFta+9A4ErofxbCpt3caFP1H+U6LHnhbTPZNIY7X8q
WNjG5PWCgNeFiVuDWVuKsNhQtEf6f14w/jjqvSij2A5KU6fYkfilHfs0LCV1Gqmo
H4hxl9nrEfzjKj53sIi6VgJXNs0moKB1e15kTIbh510FfW9aUbzgEBM1
-----END CERTIFICATE-----
